target datalayout = "e-m:e-p270:32:32-p271:32:32-p272:64:64-i64:64-i128:128-f80:128-n8:16:32:64-S128"
target triple = "x86_64-unknown-linux-gnu"

%"class.std::mutex" = type { %"class.std::__mutex_base" }
%"class.std::__mutex_base" = type { %union.pthread_mutex_t }
%union.pthread_mutex_t = type { %struct.__pthread_mutex_s }
%struct.__pthread_mutex_s = type { i32, i32, i32, i32, i32, i16, i16, %struct.__pthread_internal_list }
%struct.__pthread_internal_list = type { ptr, ptr }
%"class.std::condition_variable" = type { %"class.std::__condvar" }
%"class.std::__condvar" = type { %union.pthread_cond_t }
%union.pthread_cond_t = type { %struct.__pthread_cond_s }
%struct.__pthread_cond_s = type { %union.__atomic_wide_counter, %union.__atomic_wide_counter, [2 x i32], [2 x i32], i32, i32, [2 x i32] }
%union.__atomic_wide_counter = type { i64 }
%"class.spdlog::details::thread_pool" = type { %"class.spdlog::details::mpmc_blocking_queue", %"class.std::vector.23" }
%"class.spdlog::details::mpmc_blocking_queue" = type { %"class.std::mutex", %"class.std::condition_variable", %"class.std::condition_variable", %"class.spdlog::details::circular_q.15", %"struct.std::atomic.21" }
%"class.spdlog::details::circular_q.15" = type { i64, i64, i64, i64, %"class.std::vector.16" }
%"class.std::vector.16" = type { %"struct.std::_Vector_base.17" }
%"struct.std::_Vector_base.17" = type { %"struct.std::_Vector_base<spdlog::details::async_msg, std::allocator<spdlog::details::async_msg>>::_Vector_impl" }
%"struct.std::_Vector_base<spdlog::details::async_msg, std::allocator<spdlog::details::async_msg>>::_Vector_impl" = type { %"struct.std::_Vector_base<spdlog::details::async_msg, std::allocator<spdlog::details::async_msg>>::_Vector_impl_data" }
%"struct.std::_Vector_base<spdlog::details::async_msg, std::allocator<spdlog::details::async_msg>>::_Vector_impl_data" = type { ptr, ptr, ptr }
%"struct.std::atomic.21" = type { %"struct.std::__atomic_base.22" }
%"struct.std::__atomic_base.22" = type { i64 }
%"class.std::vector.23" = type { %"struct.std::_Vector_base.24" }
%"struct.std::_Vector_base.24" = type { %"struct.std::_Vector_base<std::thread, std::allocator<std::thread>>::_Vector_impl" }
%"struct.std::_Vector_base<std::thread, std::allocator<std::thread>>::_Vector_impl" = type { %"struct.std::_Vector_base<std::thread, std::allocator<std::thread>>::_Vector_impl_data" }
%"struct.std::_Vector_base<std::thread, std::allocator<std::thread>>::_Vector_impl_data" = type { ptr, ptr, ptr }
%"class.std::unique_lock" = type <{ ptr, i8, [7 x i8] }>

; Function Attrs: mustprogress nounwind uwtable
define internal noundef i32 @_ZL18__gthread_active_pv() #2 {
entry:
  ret i32 1
}

; Function Attrs: mustprogress nounwind uwtable
define internal noundef i32 @_ZL22__gthread_mutex_unlockP15pthread_mutex_t(ptr noundef %__mutex) #2 {
entry:
  %retval = alloca i32, align 4
  %__mutex.addr = alloca ptr, align 8
  store ptr %__mutex, ptr %__mutex.addr, align 8
  %call = call noundef i32 @_ZL18__gthread_active_pv()
  %tobool = icmp ne i32 %call, 0
  br i1 %tobool, label %if.then, label %if.else

if.then:                                          ; preds = %entry
  %0 = load ptr, ptr %__mutex.addr, align 8
  %call1 = call i32 @pthread_mutex_unlock(ptr noundef %0) #14
  store i32 %call1, ptr %retval, align 4
  br label %return

if.else:                                          ; preds = %entry
  store i32 0, ptr %retval, align 4
  br label %return

return:                                           ; preds = %if.else, %if.then
  %1 = load i32, ptr %retval, align 4
  ret i32 %1
}

; Function Attrs: mustprogress uwtable
define internal noundef i32 @_ZL20__gthread_mutex_lockP15pthread_mutex_t(ptr noundef %__mutex) #0 {
entry:
  %retval = alloca i32, align 4
  %__mutex.addr = alloca ptr, align 8
  store ptr %__mutex, ptr %__mutex.addr, align 8
  %call = call noundef i32 @_ZL18__gthread_active_pv()
  %tobool = icmp ne i32 %call, 0
  br i1 %tobool, label %if.then, label %if.else

if.then:                                          ; preds = %entry
  %0 = load ptr, ptr %__mutex.addr, align 8
  %call1 = call i32 @pthread_mutex_lock(ptr noundef %0) #14
  store i32 %call1, ptr %retval, align 4
  br label %return

if.else:                                          ; preds = %entry
  store i32 0, ptr %retval, align 4
  br label %return

return:                                           ; preds = %if.else, %if.then
  %1 = load i32, ptr %retval, align 4
  ret i32 %1
}

; Function Attrs: mustprogress uwtable
define linkonce_odr dso_local void @_ZNSt5mutex6unlockEv(ptr noundef nonnull align 8 dereferenceable(40) %this) #0 comdat align 2 {
entry:
  %this.addr = alloca ptr, align 8
  store ptr %this, ptr %this.addr, align 8
  %this1 = load ptr, ptr %this.addr, align 8
  %_M_mutex = getelementptr inbounds %"class.std::__mutex_base", ptr %this1, i32 0, i32 0
  %call = call noundef i32 @_ZL22__gthread_mutex_unlockP15pthread_mutex_t(ptr noundef %_M_mutex)
  ret void
}

; Function Attrs: mustprogress uwtable
define linkonce_odr dso_local void @_ZNSt5mutex4lockEv(ptr noundef nonnull align 8 dereferenceable(40) %this) #0 comdat align 2 {
entry:
  %this.addr = alloca ptr, align 8
  %__e = alloca i32, align 4
  store ptr %this, ptr %this.addr, align 8
  %this1 = load ptr, ptr %this.addr, align 8
  %_M_mutex = getelementptr inbounds %"class.std::__mutex_base", ptr %this1, i32 0, i32 0
  %call = call noundef i32 @_ZL20__gthread_mutex_lockP15pthread_mutex_t(ptr noundef %_M_mutex)
  store i32 %call, ptr %__e, align 4
  %0 = load i32, ptr %__e, align 4
  %tobool = icmp ne i32 %0, 0
  br i1 %tobool, label %if.then, label %if.end

if.then:                                          ; preds = %entry
  %1 = load i32, ptr %__e, align 4
  call void @_ZSt20__throw_system_errori(i32 noundef %1) #15
  unreachable

if.end:                                           ; preds = %entry
  ret void
}

; Function Attrs: noreturn nounwind uwtable
define linkonce_odr hidden void @__clang_call_terminate(ptr noundef %0) #6 comdat {
  %2 = call ptr @__cxa_begin_catch(ptr %0) #14
  call void @_ZSt9terminatev() #16
  unreachable
}

; Function Attrs: mustprogress uwtable
define linkonce_odr dso_local void @_ZNSt11unique_lockISt5mutexE6unlockEv(ptr noundef nonnull align 8 dereferenceable(9) %this) #0 comdat align 2 {
entry:
  %this.addr = alloca ptr, align 8
  store ptr %this, ptr %this.addr, align 8
  %this1 = load ptr, ptr %this.addr, align 8
  %_M_owns = getelementptr inbounds %"class.std::unique_lock", ptr %this1, i32 0, i32 1
  %0 = load i8, ptr %_M_owns, align 8
  %tobool = trunc i8 %0 to i1
  br i1 %tobool, label %if.else, label %if.then

if.then:                                          ; preds = %entry
  call void @_ZSt20__throw_system_errori(i32 noundef 1) #15
  unreachable

if.else:                                          ; preds = %entry
  %_M_device = getelementptr inbounds %"class.std::unique_lock", ptr %this1, i32 0, i32 0
  %1 = load ptr, ptr %_M_device, align 8
  %tobool2 = icmp ne ptr %1, null
  br i1 %tobool2, label %if.then3, label %if.end

if.then3:                                         ; preds = %if.else
  %_M_device4 = getelementptr inbounds %"class.std::unique_lock", ptr %this1, i32 0, i32 0
  %2 = load ptr, ptr %_M_device4, align 8
  call void @_ZNSt5mutex6unlockEv(ptr noundef nonnull align 8 dereferenceable(40) %2)
  %_M_owns5 = getelementptr inbounds %"class.std::unique_lock", ptr %this1, i32 0, i32 1
  store i8 0, ptr %_M_owns5, align 8
  br label %if.end

if.end:                                           ; preds = %if.then3, %if.else
  br label %if.end6

if.end6:                                          ; preds = %if.end
  ret void
}

; Function Attrs: mustprogress uwtable
define linkonce_odr dso_local void @_ZNSt11unique_lockISt5mutexE4lockEv(ptr noundef nonnull align 8 dereferenceable(9) %this) #0 comdat align 2 {
entry:
  %this.addr = alloca ptr, align 8
  store ptr %this, ptr %this.addr, align 8
  %this1 = load ptr, ptr %this.addr, align 8
  %_M_device = getelementptr inbounds %"class.std::unique_lock", ptr %this1, i32 0, i32 0
  %0 = load ptr, ptr %_M_device, align 8
  %tobool = icmp ne ptr %0, null
  br i1 %tobool, label %if.else, label %if.then

if.then:                                          ; preds = %entry
  call void @_ZSt20__throw_system_errori(i32 noundef 1) #15
  unreachable

if.else:                                          ; preds = %entry
  %_M_owns = getelementptr inbounds %"class.std::unique_lock", ptr %this1, i32 0, i32 1
  %1 = load i8, ptr %_M_owns, align 8
  %tobool2 = trunc i8 %1 to i1
  br i1 %tobool2, label %if.then3, label %if.else4

if.then3:                                         ; preds = %if.else
  call void @_ZSt20__throw_system_errori(i32 noundef 35) #15
  unreachable

if.else4:                                         ; preds = %if.else
  %_M_device5 = getelementptr inbounds %"class.std::unique_lock", ptr %this1, i32 0, i32 0
  %2 = load ptr, ptr %_M_device5, align 8
  call void @_ZNSt5mutex4lockEv(ptr noundef nonnull align 8 dereferenceable(40) %2)
  %_M_owns6 = getelementptr inbounds %"class.std::unique_lock", ptr %this1, i32 0, i32 1
  store i8 1, ptr %_M_owns6, align 8
  br label %if.end

if.end:                                           ; preds = %if.else4
  br label %if.end7

if.end7:                                          ; preds = %if.end
  ret void
}

; Function Attrs: mustprogress nounwind uwtable
define linkonce_odr dso_local void @_ZNSt11unique_lockISt5mutexED2Ev(ptr noundef nonnull align 8 dereferenceable(9) %this) unnamed_addr #2 comdat align 2 personality ptr @__gxx_personality_v0 {
entry:
  %this.addr = alloca ptr, align 8
  store ptr %this, ptr %this.addr, align 8
  %this1 = load ptr, ptr %this.addr, align 8
  %_M_owns = getelementptr inbounds %"class.std::unique_lock", ptr %this1, i32 0, i32 1
  %0 = load i8, ptr %_M_owns, align 8
  %tobool = trunc i8 %0 to i1
  br i1 %tobool, label %if.then, label %if.end

if.then:                                          ; preds = %entry
  invoke void @_ZNSt11unique_lockISt5mutexE6unlockEv(ptr noundef nonnull align 8 dereferenceable(9) %this1)
          to label %invoke.cont unwind label %terminate.lpad

invoke.cont:                                      ; preds = %if.then
  br label %if.end

if.end:                                           ; preds = %invoke.cont, %entry
  ret void

terminate.lpad:                                   ; preds = %if.then
  %1 = landingpad { ptr, i32 }
          catch ptr null
  %2 = extractvalue { ptr, i32 } %1, 0
  call void @__clang_call_terminate(ptr %2) #16
  unreachable
}

; Function Attrs: mustprogress nounwind uwtable
define linkonce_odr dso_local noundef i64 @_ZNK6spdlog7details10circular_qINS0_9async_msgEE4sizeEv(ptr noundef nonnull align 8 dereferenceable(56) %this) #2 comdat align 2 {
entry:
  %retval = alloca i64, align 8
  %this.addr = alloca ptr, align 8
  store ptr %this, ptr %this.addr, align 8
  %this1 = load ptr, ptr %this.addr, align 8
  %tail_ = getelementptr inbounds %"class.spdlog::details::circular_q.15", ptr %this1, i32 0, i32 2
  %0 = load i64, ptr %tail_, align 8
  %head_ = getelementptr inbounds %"class.spdlog::details::circular_q.15", ptr %this1, i32 0, i32 1
  %1 = load i64, ptr %head_, align 8
  %cmp = icmp uge i64 %0, %1
  br i1 %cmp, label %if.then, label %if.else

if.then:                                          ; preds = %entry
  %tail_2 = getelementptr inbounds %"class.spdlog::details::circular_q.15", ptr %this1, i32 0, i32 2
  %2 = load i64, ptr %tail_2, align 8
  %head_3 = getelementptr inbounds %"class.spdlog::details::circular_q.15", ptr %this1, i32 0, i32 1
  %3 = load i64, ptr %head_3, align 8
  %sub = sub i64 %2, %3
  store i64 %sub, ptr %retval, align 8
  br label %return

if.else:                                          ; preds = %entry
  %max_items_ = getelementptr inbounds %"class.spdlog::details::circular_q.15", ptr %this1, i32 0, i32 0
  %4 = load i64, ptr %max_items_, align 8
  %head_4 = getelementptr inbounds %"class.spdlog::details::circular_q.15", ptr %this1, i32 0, i32 1
  %5 = load i64, ptr %head_4, align 8
  %tail_5 = getelementptr inbounds %"class.spdlog::details::circular_q.15", ptr %this1, i32 0, i32 2
  %6 = load i64, ptr %tail_5, align 8
  %sub6 = sub i64 %5, %6
  %sub7 = sub i64 %4, %sub6
  store i64 %sub7, ptr %retval, align 8
  br label %return

return:                                           ; preds = %if.else, %if.then
  %7 = load i64, ptr %retval, align 8
  ret i64 %7
}

; Function Attrs: mustprogress uwtable
define linkonce_odr dso_local void @_ZNSt11unique_lockISt5mutexEC2ERS0_(ptr noundef nonnull align 8 dereferenceable(9) %this, ptr noundef nonnull align 8 dereferenceable(40) %__m) unnamed_addr #0 comdat align 2 {
entry:
  %this.addr = alloca ptr, align 8
  %__m.addr = alloca ptr, align 8
  store ptr %this, ptr %this.addr, align 8
  store ptr %__m, ptr %__m.addr, align 8
  %this1 = load ptr, ptr %this.addr, align 8
  %_M_device = getelementptr inbounds %"class.std::unique_lock", ptr %this1, i32 0, i32 0
  %0 = load ptr, ptr %__m.addr, align 8
  store ptr %0, ptr %_M_device, align 8
  %_M_owns = getelementptr inbounds %"class.std::unique_lock", ptr %this1, i32 0, i32 1
  store i8 0, ptr %_M_owns, align 8
  call void @_ZNSt11unique_lockISt5mutexE4lockEv(ptr noundef nonnull align 8 dereferenceable(9) %this1)
  %_M_owns2 = getelementptr inbounds %"class.std::unique_lock", ptr %this1, i32 0, i32 1
  store i8 1, ptr %_M_owns2, align 8
  ret void
}

; Function Attrs: mustprogress uwtable
define linkonce_odr dso_local noundef i64 @_ZN6spdlog7details19mpmc_blocking_queueINS0_9async_msgEE4sizeEv(ptr noundef nonnull align 8 dereferenceable(200) %this) #0 comdat align 2 personality ptr @__gxx_personality_v0 {
entry:
  %this.addr = alloca ptr, align 8
  %lock = alloca %"class.std::unique_lock", align 8
  %exn.slot = alloca ptr, align 8
  %ehselector.slot = alloca i32, align 4
  store ptr %this, ptr %this.addr, align 8
  %this1 = load ptr, ptr %this.addr, align 8
  %queue_mutex_ = getelementptr inbounds %"class.spdlog::details::mpmc_blocking_queue", ptr %this1, i32 0, i32 0
  call void @_ZNSt11unique_lockISt5mutexEC2ERS0_(ptr noundef nonnull align 8 dereferenceable(9) %lock, ptr noundef nonnull align 8 dereferenceable(40) %queue_mutex_)
  %q_ = getelementptr inbounds %"class.spdlog::details::mpmc_blocking_queue", ptr %this1, i32 0, i32 3
  %call = invoke noundef i64 @_ZNK6spdlog7details10circular_qINS0_9async_msgEE4sizeEv(ptr noundef nonnull align 8 dereferenceable(56) %q_)
          to label %invoke.cont unwind label %lpad

invoke.cont:                                      ; preds = %entry
  call void @_ZNSt11unique_lockISt5mutexED2Ev(ptr noundef nonnull align 8 dereferenceable(9) %lock) #14
  ret i64 %call

lpad:                                             ; preds = %entry
  %0 = landingpad { ptr, i32 }
          cleanup
  %1 = extractvalue { ptr, i32 } %0, 0
  store ptr %1, ptr %exn.slot, align 8
  %2 = extractvalue { ptr, i32 } %0, 1
  store i32 %2, ptr %ehselector.slot, align 4
  call void @_ZNSt11unique_lockISt5mutexED2Ev(ptr noundef nonnull align 8 dereferenceable(9) %lock) #14
  br label %eh.resume

eh.resume:                                        ; preds = %lpad
  %exn = load ptr, ptr %exn.slot, align 8
  %sel = load i32, ptr %ehselector.slot, align 4
  %lpad.val = insertvalue { ptr, i32 } poison, ptr %exn, 0
  %lpad.val2 = insertvalue { ptr, i32 } %lpad.val, i32 %sel, 1
  resume { ptr, i32 } %lpad.val2
}

; Function Attrs: mustprogress uwtable
define dso_local noundef i64 @_ZN6spdlog7details11thread_pool10queue_sizeEv(ptr noundef nonnull align 8 dereferenceable(224) %this) #0 align 2 {
entry:
  %this.addr = alloca ptr, align 8
  store ptr %this, ptr %this.addr, align 8
  %this1 = load ptr, ptr %this.addr, align 8
  %q_ = getelementptr inbounds %"class.spdlog::details::thread_pool", ptr %this1, i32 0, i32 0
  %call = call noundef i64 @_ZN6spdlog7details19mpmc_blocking_queueINS0_9async_msgEE4sizeEv(ptr noundef nonnull align 8 dereferenceable(200) %q_)
  ret i64 %call
}