; Function Attrs: mustprogress uwtable
define dso_local noundef i64 @_ZN6spdlog7details11thread_pool10queue_sizeEv(ptr noundef nonnull align 8 dereferenceable(224) %this) local_unnamed_addr #0 align 2 personality ptr @__gxx_personality_v0 {
entry:
  %call1.i.i.i.i.i = tail call noundef i32 @pthread_mutex_lock(ptr noundef nonnull %this) #18
  %tobool.not.i.i.i.i = icmp eq i32 %call1.i.i.i.i.i, 0
  br i1 %tobool.not.i.i.i.i, label %_ZN6spdlog7details19mpmc_blocking_queueINS0_9async_msgEE4sizeEv.exit, label %if.then.i.i.i.i

if.then.i.i.i.i:                                  ; preds = %entry
  tail call void @_ZSt20__throw_system_errori(i32 noundef %call1.i.i.i.i.i) #19
  unreachable

_ZN6spdlog7details19mpmc_blocking_queueINS0_9async_msgEE4sizeEv.exit: ; preds = %entry
  %q_.i = getelementptr inbounds i8, ptr %this, i64 136
  %tail_.i.i = getelementptr inbounds i8, ptr %this, i64 152
  %0 = load i64, ptr %tail_.i.i, align 8
  %head_.i.i = getelementptr inbounds i8, ptr %this, i64 144
  %1 = load i64, ptr %head_.i.i, align 8
  %cmp.not.i.i = icmp ult i64 %0, %1
  %sub.i.i = sub i64 %0, %1
  %2 = load i64, ptr %q_.i, align 8
  %sub7.i.i = select i1 %cmp.not.i.i, i64 %2, i64 0
  %retval.0.i.i = add i64 %sub.i.i, %sub7.i.i
  %call1.i.i.i.i2.i = tail call noundef i32 @pthread_mutex_unlock(ptr noundef nonnull %this) #18
  ret i64 %retval.0.i.i
}